(lp1
cnumpy.core.multiarray
_reconstruct
p2
(cnumpy
ndarray
p3
(I0
tS'b'
tRp4
(I1
(I2
tcnumpy
dtype
p5
(S'f4'
I0
I1
tRp6
(I3
S'<'
NNNI-1
I-1
I0
tbI00
S'\xf5\xd3\x9b?\xa9,\xed>'
tbag2
(g3
(I0
tS'b'
tRp7
(I1
(I2
tg6
I00
S'\xd9\xd9\x9a?\x1a\x15\xf1>'
tbag2
(g3
(I0
tS'b'
tRp8
(I1
(I2
tg6
I00
S'CQ\x9a?G7\xf3>'
tbag2
(g3
(I0
tS'b'
tRp9
(I1
(I2
tg6
I00
S'\xd5\x00\x99?\xf5x\xf8>'
tbag2
(g3
(I0
tS'b'
tRp10
(I1
(I2
tg6
I00
S'\x8e5\x98?\x18\xa6\xfb>'
tbag2
(g3
(I0
tS'b'
tRp11
(I1
(I2
tg6
I00
S'x\xcf\x96?:\x9f\x00?'
tbag2
(g3
(I0
tS'b'
tRp12
(I1
(I2
tg6
I00
S'o\x1a\x97?r\t\x00?'
tbag2
(g3
(I0
tS'b'
tRp13
(I1
(I2
tg6
I00
S'\x06\xda\x95?5\x8a\x02?'
tbag2
(g3
(I0
tS'b'
tRp14
(I1
(I2
tg6
I00
S'\\X\x95?\x8f\x8d\x03?'
tbag2
(g3
(I0
tS'b'
tRp15
(I1
(I2
tg6
I00
S'4\xe0\x94?\xdc}\x04?'
tbag2
(g3
(I0
tS'b'
tRp16
(I1
(I2
tg6
I00
S'E!\x94?\xad\xfb\x05?'
tbag2
(g3
(I0
tS'b'
tRp17
(I1
(I2
tg6
I00
S'\xe2\xed\x93?eb\x06?'
tbag2
(g3
(I0
tS'b'
tRp18
(I1
(I2
tg6
I00
S';\x89\x93?\xc2+\x07?'
tbag2
(g3
(I0
tS'b'
tRp19
(I1
(I2
tg6
I00
S'k\xdc\x92?]\x85\x08?'
tbag2
(g3
(I0
tS'b'
tRp20
(I1
(I2
tg6
I00
S'\x18$\x92?\xf5\xf5\t?'
tbag2
(g3
(I0
tS'b'
tRp21
(I1
(I2
tg6
I00
S';\x88\x91?\xb2-\x0b?'
tbag2
(g3
(I0
tS'b'
tRp22
(I1
(I2
tg6
I00
S'\xa4\xec\x91?\xc4d\n?'
tbag2
(g3
(I0
tS'b'
tRp23
(I1
(I2
tg6
I00
S'\x85\x1b\x91?\x10\x07\x0c?'
tbag2
(g3
(I0
tS'b'
tRp24
(I1
(I2
tg6
I00
S'\xd3k\x90?zf\r?'
tbag2
(g3
(I0
tS'b'
tRp25
(I1
(I2
tg6
I00
S'\xe1\x0b\x91?V&\x0c?'
tbag2
(g3
(I0
tS'b'
tRp26
(I1
(I2
tg6
I00
S'd\xd6\x8f?K\x91\x0e?'
tbag2
(g3
(I0
tS'b'
tRp27
(I1
(I2
tg6
I00
S'\x17\xd2\x8f?\xd9\x99\x0e?'
tbag2
(g3
(I0
tS'b'
tRp28
(I1
(I2
tg6
I00
S'\xbb\xa3\x8f?\x9e\xf6\x0e?'
tbag2
(g3
(I0
tS'b'
tRp29
(I1
(I2
tg6
I00
S'\x1c\x1e\x8f?\xe8\x01\x10?'
tbag2
(g3
(I0
tS'b'
tRp30
(I1
(I2
tg6
I00
S'x\x0c\x90?4%\x0e?'
tbag2
(g3
(I0
tS'b'
tRp31
(I1
(I2
tg6
I00
S'\xc7\xa2\x8e?\x96\xf8\x10?'
tbag2
(g3
(I0
tS'b'
tRp32
(I1
(I2
tg6
I00
S'\xb4\xd7\x8d?\x8d\x8e\x12?'
tbag2
(g3
(I0
tS'b'
tRp33
(I1
(I2
tg6
I00
S'\xc0\x04\x8e?K4\x12?'
tbag2
(g3
(I0
tS'b'
tRp34
(I1
(I2
tg6
I00
S'\xb0\x02\x8e?x8\x12?'
tbag2
(g3
(I0
tS'b'
tRp35
(I1
(I2
tg6
I00
S'g8\x8e?\x17\xcd\x11?'
tbag2
(g3
(I0
tS'b'
tRp36
(I1
(I2
tg6
I00
S'\xdf_\x8e?"~\x11?'
tbag2
(g3
(I0
tS'b'
tRp37
(I1
(I2
tg6
I00
S'\xa6\xfc\x8d?\x9aD\x12?'
tbag2
(g3
(I0
tS'b'
tRp38
(I1
(I2
tg6
I00
S'\n\x96\x8c?\xdc\x11\x15?'
tbag2
(g3
(I0
tS'b'
tRp39
(I1
(I2
tg6
I00
S'?\x83\x8e?h7\x11?'
tbag2
(g3
(I0
tS'b'
tRp40
(I1
(I2
tg6
I00
S'A\x84\x8e?Y5\x11?'
tbag2
(g3
(I0
tS'b'
tRp41
(I1
(I2
tg6
I00
S'\xf8=\x8c?\xed\xc1\x15?'
tbag2
(g3
(I0
tS'b'
tRp42
(I1
(I2
tg6
I00
S'\xfcb\x8e?\xe5w\x11?'
tbag2
(g3
(I0
tS'b'
tRp43
(I1
(I2
tg6
I00
S'\x97o\x8c?\xa9^\x15?'
tbag2
(g3
(I0
tS'b'
tRp44
(I1
(I2
tg6
I00
S'\tC\x8c?\xa5\xb7\x15?'
tbag2
(g3
(I0
tS'b'
tRp45
(I1
(I2
tg6
I00
S'\xfa,\x8d?\xbd\xe3\x13?'
tbag2
(g3
(I0
tS'b'
tRp46
(I1
(I2
tg6
I00
S';\xfb\x8b?@G\x16?'
tbag2
(g3
(I0
tS'b'
tRp47
(I1
(I2
tg6
I00
S'\x84\x8e\x8b?\xc3 \x17?'
tbag2
(g3
(I0
tS'b'
tRp48
(I1
(I2
tg6
I00
S'\xbb\x9e\x8c?K\x00\x15?'
tbag2
(g3
(I0
tS'b'
tRp49
(I1
(I2
tg6
I00
S'\xbe\xb0\x8b? \xdc\x16?'
tbag2
(g3
(I0
tS'b'
tRp50
(I1
(I2
tg6
I00
S'\x02\x18\x8c?\x8e\r\x16?'
tbag2
(g3
(I0
tS'b'
tRp51
(I1
(I2
tg6
I00
S'r\xd1\x8a?\xbc\x9a\x18?'
tbag2
(g3
(I0
tS'b'
tRp52
(I1
(I2
tg6
I00
S'@\xe8\x8b?\x06m\x16?'
tbag2
(g3
(I0
tS'b'
tRp53
(I1
(I2
tg6
I00
S'%\x17\x8b?X\x0f\x18?'
tbag2
(g3
(I0
tS'b'
tRp54
(I1
(I2
tg6
I00
S'\x98\x90\x89?q\x1c\x1b?'
tbag2
(g3
(I0
tS'b'
tRp55
(I1
(I2
tg6
I00
S'\xcbA\x8b?2\xba\x17?'
tbag2
(g3
(I0
tS'b'
tRp56
(I1
(I2
tg6
I00
S'\x05\xc4\x8a?\x96\xb5\x18?'
tbag2
(g3
(I0
tS'b'
tRp57
(I1
(I2
tg6
I00
S'\xce\xe3\x89?\xf1u\x1a?'
tbag2
(g3
(I0
tS'b'
tRp58
(I1
(I2
tg6
I00
S'\xd4\xe7\x8b?\xeem\x16?'
tbag2
(g3
(I0
tS'b'
tRp59
(I1
(I2
tg6
I00
S'\\\xca\x89?\xc5\xa8\x1a?'
tbag2
(g3
(I0
tS'b'
tRp60
(I1
(I2
tg6
I00
S'\xca\xc0\x8a?\xd8\xbb\x18?'
tbag2
(g3
(I0
tS'b'
tRp61
(I1
(I2
tg6
I00
S'C,\x89?\xdf\xe4\x1b?'
tbag2
(g3
(I0
tS'b'
tRp62
(I1
(I2
tg6
I00
S'T[\x8b?\xb8\x86\x17?'
tbag2
(g3
(I0
tS'b'
tRp63
(I1
(I2
tg6
I00
S'\xb2\x8c\x8a?\xeb#\x19?'
tbag2
(g3
(I0
tS'b'
tRp64
(I1
(I2
tg6
I00
S'\x83\xbd\x8a?\x1a\xc2\x18?'
tbag2
(g3
(I0
tS'b'
tRp65
(I1
(I2
tg6
I00
S'\xdf[\x89?]\x85\x1b?'
tbag2
(g3
(I0
tS'b'
tRp66
(I1
(I2
tg6
I00
S'\xb4\xf8\x88?\xc5K\x1c?'
tbag2
(g3
(I0
tS'b'
tRp67
(I1
(I2
tg6
I00
S'1\xb7\x88?\xd6\xce\x1c?'
tbag2
(g3
(I0
tS'b'
tRp68
(I1
(I2
tg6
I00
S'W\xc7\x88?s\xae\x1c?'
tbag2
(g3
(I0
tS'b'
tRp69
(I1
(I2
tg6
I00
S'\xed\xd7\x8a?>\x8d\x18?'
tbag2
(g3
(I0
tS'b'
tRp70
(I1
(I2
tg6
I00
S'D%\x89?v\xf2\x1b?'
tbag2
(g3
(I0
tS'b'
tRp71
(I1
(I2
tg6
I00
S'\x18:\x88?\xcb\xc8\x1d?'
tbag2
(g3
(I0
tS'b'
tRp72
(I1
(I2
tg6
I00
S'y}\x8b?\x1cB\x17?'
tbag2
(g3
(I0
tS'b'
tRp73
(I1
(I2
tg6
I00
S'\x95A\x89?\xe4\xb9\x1b?'
tbag2
(g3
(I0
tS'b'
tRp74
(I1
(I2
tg6
I00
S'\xe8\xaa\x87?$\xe7\x1e?'
tbag2
(g3
(I0
tS'b'
tRp75
(I1
(I2
tg6
I00
S'\xa4\xde\x88?\xb2\x7f\x1c?'
tbag2
(g3
(I0
tS'b'
tRp76
(I1
(I2
tg6
I00
S'\x9c\xaf\x88?\x91\xdd\x1c?'
tbag2
(g3
(I0
tS'b'
tRp77
(I1
(I2
tg6
I00
S'\x1c\xb0\x89?\x96\xdc\x1a?'
tbag2
(g3
(I0
tS'b'
tRp78
(I1
(I2
tg6
I00
S'\xd0\xfd\x86?"A ?'
tbag2
(g3
(I0
tS'b'
tRp79
(I1
(I2
tg6
I00
S'O/\x88?.\xde\x1d?'
tbag2
(g3
(I0
tS'b'
tRp80
(I1
(I2
tg6
I00
S'\xd4\xb8\x87?!\xcb\x1e?'
tbag2
(g3
(I0
tS'b'
tRp81
(I1
(I2
tg6
I00
S'}\xd8\x88?\xa2\x8b\x1c?'
tbag2
(g3
(I0
tS'b'
tRp82
(I1
(I2
tg6
I00
S'\xe5z\x87?\xd9F\x1f?'
tbag2
(g3
(I0
tS'b'
tRp83
(I1
(I2
tg6
I00
S'+\xe5\x86?rr ?'
tbag2
(g3
(I0
tS'b'
tRp84
(I1
(I2
tg6
I00
S'\xdf&\x87?\xf2\xee\x1f?'
tbag2
(g3
(I0
tS'b'
tRp85
(I1
(I2
tg6
I00
S'\xa7\xc3\x86?;\xb5 ?'
tbag2
(g3
(I0
tS'b'
tRp86
(I1
(I2
tg6
I00
S'\xb7\x86\x87?\x1d/\x1f?'
tbag2
(g3
(I0
tS'b'
tRp87
(I1
(I2
tg6
I00
S'\x84X\x88?\x8c\x8b\x1d?'
tbag2
(g3
(I0
tS'b'
tRp88
(I1
(I2
tg6
I00
S'\x03N\x87?\x98\xa0\x1f?'
tbag2
(g3
(I0
tS'b'
tRp89
(I1
(I2
tg6
I00
S'\xb0X\x84?;\x8b%?'
tbag2
(g3
(I0
tS'b'
tRp90
(I1
(I2
tg6
I00
S'\xb7\x0f\x87?Z\x1d ?'
tbag2
(g3
(I0
tS'b'
tRp91
(I1
(I2
tg6
I00
S'\n\xfe\x87?\xbb@\x1e?'
tbag2
(g3
(I0
tS'b'
tRp92
(I1
(I2
tg6
I00
S'\x9fR\x86?\x97\x97!?'
tbag2
(g3
(I0
tS'b'
tRp93
(I1
(I2
tg6
I00
S'\xb6\xa7\x86?r\xed ?'
tbag2
(g3
(I0
tS'b'
tRp94
(I1
(I2
tg6
I00
S'\xc1\x1d\x87?\x88\x01 ?'
tbag2
(g3
(I0
tS'b'
tRp95
(I1
(I2
tg6
I00
S'L\x95\x86?i\x12!?'
tbag2
(g3
(I0
tS'b'
tRp96
(I1
(I2
tg6
I00
S'\xcb\x0e\x86?f\x1f"?'
tbag2
(g3
(I0
tS'b'
tRp97
(I1
(I2
tg6
I00
S'\xa7x\x86?\xb2K!?'
tbag2
(g3
(I0
tS'b'
tRp98
(I1
(I2
tg6
I00
S'$8\x86?\xbd\xcc!?'
tbag2
(g3
(I0
tS'b'
tRp99
(I1
(I2
tg6
I00
S'\x8a\t\x85?\xe0)$?'
tbag2
(g3
(I0
tS'b'
tRp100
(I1
(I2
tg6
I00
S'@\xed\x85?[b"?'
tbag2
(g3
(I0
tS'b'
tRp101
(I1
(I2
tg6
I00
S'\xa1x\x86?\xa0K!?'
tbag2
(g3
(I0
tS'b'
tRp102
(I1
(I2
tg6
I00
S'\xdf\xdf\x87?\x1b}\x1e?'
tbag2
(g3
(I0
tS'b'
tRp103
(I1
(I2
tg6
I00
S'~d\x86?\x0et!?'
tbag2
(g3
(I0
tS'b'
tRp104
(I1
(I2
tg6
I00
S'\xfcQ\x85?\x16\x99#?'
tbag2
(g3
(I0
tS'b'
tRp105
(I1
(I2
tg6
I00
S'\xa4L\x85?\xce\xa3#?'
tbag2
(g3
(I0
tS'b'
tRp106
(I1
(I2
tg6
I00
S'\xa9$\x87?\xe2\xf3\x1f?'
tbag2
(g3
(I0
tS'b'
tRp107
(I1
(I2
tg6
I00
S'\xa5`\x85?\xcb{#?'
tbag2
(g3
(I0
tS'b'
tRp108
(I1
(I2
tg6
I00
S'u\xe5\x85?\x01r"?'
tbag2
(g3
(I0
tS'b'
tRp109
(I1
(I2
tg6
I00
S'V\x89\x87?@*\x1f?'
tbag2
(g3
(I0
tS'b'
tRp110
(I1
(I2
tg6
I00
S'N\xa4\x84?B\xf4$?'
tbag2
(g3
(I0
tS'b'
tRp111
(I1
(I2
tg6
I00
S'ZB\x85?&\xb8#?'
tbag2
(g3
(I0
tS'b'
tRp112
(I1
(I2
tg6
I00
S'l+\x86?\x10\xe6!?'
tbag2
(g3
(I0
tS'b'
tRp113
(I1
(I2
tg6
I00
S'\x93\x02\x85?\xab7$?'
tbag2
(g3
(I0
tS'b'
tRp114
(I1
(I2
tg6
I00
S'\xed\x05\x86?\x121"?'
tbag2
(g3
(I0
tS'b'
tRp115
(I1
(I2
tg6
I00
S'V\xf0\x84?H\\$?'
tbag2
(g3
(I0
tS'b'
tRp116
(I1
(I2
tg6
I00
S'\x10\xd5\x83?\xfd\x92&?'
tbag2
(g3
(I0
tS'b'
tRp117
(I1
(I2
tg6
I00
S'\x14;\x85?\xec\xc6#?'
tbag2
(g3
(I0
tS'b'
tRp118
(I1
(I2
tg6
I00
S'd\xc9\x84?P\xaa$?'
tbag2
(g3
(I0
tS'b'
tRp119
(I1
(I2
tg6
I00
S'\rV\x84?\xef\x90%?'
tbag2
(g3
(I0
tS'b'
tRp120
(I1
(I2
tg6
I00
S'\x14h\x85?\xf7l#?'
tbag2
(g3
(I0
tS'b'
tRp121
(I1
(I2
tg6
I00
S'O\x0b\x86?\xa0&"?'
tbag2
(g3
(I0
tS'b'
tRp122
(I1
(I2
tg6
I00
S'\xff\x1e\x85?P\xff#?'
tbag2
(g3
(I0
tS'b'
tRp123
(I1
(I2
tg6
I00
S'\x8ev\x86?!P!?'
tbag2
(g3
(I0
tS'b'
tRp124
(I1
(I2
tg6
I00
S'\xb2\xbb\x85?\xf2\xc5"?'
tbag2
(g3
(I0
tS'b'
tRp125
(I1
(I2
tg6
I00
S'\x84\xb1\x84?W\xda$?'
tbag2
(g3
(I0
tS'b'
tRp126
(I1
(I2
tg6
I00
S'\xb4\xce\x84?\xe6\x9f$?'
tbag2
(g3
(I0
tS'b'
tRp127
(I1
(I2
tg6
I00
S'qd\x86?kt!?'
tbag2
(g3
(I0
tS'b'
tRp128
(I1
(I2
tg6
I00
S'a\x1f\x86?\xb4\xfe!?'
tbag2
(g3
(I0
tS'b'
tRp129
(I1
(I2
tg6
I00
S'=\xbb\x84?\xe7\xc6$?'
tbag2
(g3
(I0
tS'b'
tRp130
(I1
(I2
tg6
I00
S'6\xc6\x85?\xf5\xb0"?'
tbag2
(g3
(I0
tS'b'
tRp131
(I1
(I2
tg6
I00
S'\x90`\x86?\x1e|!?'
tbag2
(g3
(I0
tS'b'
tRp132
(I1
(I2
tg6
I00
S'5\xe7\x83?\x9fn&?'
tbag2
(g3
(I0
tS'b'
tRp133
(I1
(I2
tg6
I00
S'\xb7\x1b\x86?\x88\x05"?'
tbag2
(g3
(I0
tS'b'
tRp134
(I1
(I2
tg6
I00
S'XH\x85?,\xac#?'
tbag2
(g3
(I0
tS'b'
tRp135
(I1
(I2
tg6
I00
S'\xf8~\x84?\xfb>%?'
tbag2
(g3
(I0
tS'b'
tRp136
(I1
(I2
tg6
I00
S'\x9a\xbb\x82?\xad\xc5(?'
tbag2
(g3
(I0
tS'b'
tRp137
(I1
(I2
tg6
I00
S'M\xb5\x83?d\xd2&?'
tbag2
(g3
(I0
tS'b'
tRp138
(I1
(I2
tg6
I00
S'\xa1\x17\x81?\x9a\r,?'
tbag2
(g3
(I0
tS'b'
tRp139
(I1
(I2
tg6
I00
S'\x0c\x96\x84?\xa6\x10%?'
tbag2
(g3
(I0
tS'b'
tRp140
(I1
(I2
tg6
I00
S'T\xff\x83?\x1e>&?'
tbag2
(g3
(I0
tS'b'
tRp141
(I1
(I2
tg6
I00
S'O\x18\x85?/\x0c$?'
tbag2
(g3
(I0
tS'b'
tRp142
(I1
(I2
tg6
I00
S"\xbdc\x83?Du'?"
tbag2
(g3
(I0
tS'b'
tRp143
(I1
(I2
tg6
I00
S'O\xa2\x82?&\xf8(?'
tbag2
(g3
(I0
tS'b'
tRp144
(I1
(I2
tg6
I00
S'\x8a\xd0\x82?\xdf\x9b(?'
tbag2
(g3
(I0
tS'b'
tRp145
(I1
(I2
tg6
I00
S'\x95S\x84?\xd3\x95%?'
tbag2
(g3
(I0
tS'b'
tRp146
(I1
(I2
tg6
I00
S'*\xe6\x82?\xc0p(?'
tbag2
(g3
(I0
tS'b'
tRp147
(I1
(I2
tg6
I00
S'\xbb\xb3\x82?\x96\xd5(?'
tbag2
(g3
(I0
tS'b'
tRp148
(I1
(I2
tg6
I00
S'\x01\xad\x80?\x14\xe3,?'
tbag2
(g3
(I0
tS'b'
tRp149
(I1
(I2
tg6
I00
S'\xb59\x82?\xa4\xc9)?'
tbag2
(g3
(I0
tS'b'
tRp150
(I1
(I2
tg6
I00
S'|\xcf\x82?1\x9e(?'
tbag2
(g3
(I0
tS'b'
tRp151
(I1
(I2
tg6
I00
S'\xc6L\x82?\xba\xa3)?'
tbag2
(g3
(I0
tS'b'
tRp152
(I1
(I2
tg6
I00
S'\xc4\xcc\x84?\xe7\xa3$?'
tbag2
(g3
(I0
tS'b'
tRp153
(I1
(I2
tg6
I00
S"\xedv\x83?\xabO'?"
tbag2
(g3
(I0
tS'b'
tRp154
(I1
(I2
tg6
I00
S'l\xeb\x82?\x9ef(?'
tbag2
(g3
(I0
tS'b'
tRp155
(I1
(I2
tg6
I00
S'S7\x82?\xc8\xce)?'
tbag2
(g3
(I0
tS'b'
tRp156
(I1
(I2
tg6
I00
S"\xc2.\x83?\xef\xdf'?"
tbag2
(g3
(I0
tS'b'
tRp157
(I1
(I2
tg6
I00
S'U\xa7\x83?\xcb\xee&?'
tbag2
(g3
(I0
tS'b'
tRp158
(I1
(I2
tg6
I00
S'\x19%\x85?^\xf3#?'
tbag2
(g3
(I0
tS'b'
tRp159
(I1
(I2
tg6
I00
S'k\xa9\x83?\xc6\xea&?'
tbag2
(g3
(I0
tS'b'
tRp160
(I1
(I2
tg6
I00
S'\x84\x92\x82?\x87\x18)?'
tbag2
(g3
(I0
tS'b'
tRp161
(I1
(I2
tg6
I00
S'\xf6\x9b\x80?\x96\x05-?'
tbag2
(g3
(I0
tS'b'
tRp162
(I1
(I2
tg6
I00
S'\xe8\xc8\x81?\xad\xab*?'
tbag2
(g3
(I0
tS'b'
tRp163
(I1
(I2
tg6
I00
S'\x19\x93\x81?B\x17+?'
tbag2
(g3
(I0
tS'b'
tRp164
(I1
(I2
tg6
I00
S'\xfb\xf7\x81?]M*?'
tbag2
(g3
(I0
tS'b'
tRp165
(I1
(I2
tg6
I00
S'\xa3\x88\x80?\xff+-?'
tbag2
(g3
(I0
tS'b'
tRp166
(I1
(I2
tg6
I00
S'\xe5\xc7\x7f?Uu.?'
tbag2
(g3
(I0
tS'b'
tRp167
(I1
(I2
tg6
I00
S'\xc1\x0c\x80?\xbf#.?'
tbag2
(g3
(I0
tS'b'
tRp168
(I1
(I2
tg6
I00
S'\xd8\xd3~?ni/?'
tbag2
(g3
(I0
tS'b'
tRp169
(I1
(I2
tg6
I00
S'\xe1P\x7f?d\xec.?'
tbag2
(g3
(I0
tS'b'
tRp170
(I1
(I2
tg6
I00
S'\x9a\xdc{?\xad`2?'
tbag2
(g3
(I0
tS'b'
tRp171
(I1
(I2
tg6
I00
S'Z\xdd\x7f?\xec_.?'
tbag2
(g3
(I0
tS'b'
tRp172
(I1
(I2
tg6
I00
S'\xc8$\x7f?~\x18/?'
tbag2
(g3
(I0
tS'b'
tRp173
(I1
(I2
tg6
I00
S'\xd9\xb6~?s\x86/?'
tbag2
(g3
(I0
tS'b'
tRp174
(I1
(I2
tg6
I00
S'\x1c\xe1|?/\\1?'
tbag2
(g3
(I0
tS'b'
tRp175
(I1
(I2
tg6
I00
S'f9|?\xe7\x032?'
tbag2
(g3
(I0
tS'b'
tRp176
(I1
(I2
tg6
I00
S'S\xf3y?\xfeI4?'
tbag2
(g3
(I0
tS'b'
tRp177
(I1
(I2
tg6
I00
S'B\x9b\x7f?\x12\xa2.?'
tba.