(lp1
cnumpy.core.multiarray
scalar
p2
(cnumpy
dtype
p3
(S'f4'
I0
I1
tRp4
(I3
S'<'
NNNI-1
I-1
I0
tbS'X9\x00?'
tRp5
ag2
(g4
S'M7\x01?'
tRp6
ag2
(g4
S'Y9\x00?'
tRp7
ag2
(g4
S'\x94\x18\x00?'
tRp8
ag2
(g4
S'v\x93\x00?'
tRp9
ag2
(g4
S'Q\x8d\xff>'
tRp10
ag2
(g4
S'Y9\x00?'
tRp11
ag2
(g4
S'Q\x8d\xff>'
tRp12
ag2
(g4
S'Q\x8d\xff>'
tRp13
ag2
(g4
S'\xecQ\x00?'
tRp14
ag2
(g4
S'Y9\x00?'
tRp15
ag2
(g4
S'Q\x8d\xff>'
tRp16
ag2
(g4
S'Y9\x00?'
tRp17
ag2
(g4
S'Q\x8d\xff>'
tRp18
ag2
(g4
S'\xef|\xff>'
tRp19
ag2
(g4
S'\x94\x18\x00?'
tRp20
ag2
(g4
S'Q\x8d\xff>'
tRp21
ag2
(g4
S'}?\x01?'
tRp22
ag2
(g4
S'Q\x8d\xff>'
tRp23
ag2
(g4
S'X9\x00?'
tRp24
ag2
(g4
S'Y9\x00?'
tRp25
ag2
(g4
S'Y9\x00?'
tRp26
ag2
(g4
S'Y9\x00?'
tRp27
ag2
(g4
S'Q\x8d\xff>'
tRp28
ag2
(g4
S'\xff\xd4\x00?'
tRp29
ag2
(g4
S'Q\x8d\xff>'
tRp30
ag2
(g4
S'Y9\x00?'
tRp31
ag2
(g4
S'Y9\x00?'
tRp32
ag2
(g4
S'\xfe\xd4\x00?'
tRp33
ag2
(g4
S'X9\x00?'
tRp34
ag2
(g4
S'X9\x00?'
tRp35
ag2
(g4
S'Y9\x00?'
tRp36
ag2
(g4
S'\x95\x18\x00?'
tRp37
ag2
(g4
S'C`\x01?'
tRp38
ag2
(g4
S'X9\x00?'
tRp39
ag2
(g4
S'\x16\xae\xff>'
tRp40
ag2
(g4
S'Q\x8d\xff>'
tRp41
ag2
(g4
S'Q\x8d\xff>'
tRp42
ag2
(g4
S'\xe2z\x00?'
tRp43
ag2
(g4
S'\x16\xae\xff>'
tRp44
ag2
(g4
S'c\x10\x00?'
tRp45
ag2
(g4
S'V\x0e\x01?'
tRp46
ag2
(g4
S'Y9\x00?'
tRp47
ag2
(g4
S'Y9\x00?'
tRp48
ag2
(g4
S'X9\x00?'
tRp49
ag2
(g4
S'X9\x00?'
tRp50
ag2
(g4
S'Q\x8d\xff>'
tRp51
ag2
(g4
S'Q\x8d\xff>'
tRp52
ag2
(g4
S'\xff\xd4\x00?'
tRp53
ag2
(g4
S'Q\x8d\xff>'
tRp54
ag2
(g4
S'Y9\x00?'
tRp55
ag2
(g4
S'Y9\x00?'
tRp56
ag2
(g4
S'Y9\x00?'
tRp57
ag2
(g4
S'Y9\x00?'
tRp58
ag2
(g4
S'Q\x8d\xff>'
tRp59
ag2
(g4
S"'1\x00?"
tRp60
ag2
(g4
S'\xc3\xf5\x00?'
tRp61
ag2
(g4
S'\xea&\x01?'
tRp62
ag2
(g4
S'X9\x00?'
tRp63
ag2
(g4
S'X9\x00?'
tRp64
ag2
(g4
S'Y9\x00?'
tRp65
ag2
(g4
S'Q\x8d\xff>'
tRp66
ag2
(g4
S'_\xba\x01?'
tRp67
ag2
(g4
S'\xda\xce\xff>'
tRp68
ag2
(g4
S'\x92\xed\x00?'
tRp69
ag2
(g4
S'c\x10\x00?'
tRp70
ag2
(g4
S'X9\x00?'
tRp71
ag2
(g4
S'E\x8b\x00?'
tRp72
ag2
(g4
S'\x05V\x02?'
tRp73
ag2
(g4
S'\xc1\xca\x01?'
tRp74
ag2
(g4
S'\x8d\x97\x02?'
tRp75
ag2
(g4
S'k\xbc\x00?'
tRp76
ag2
(g4
S'B`\x01?'
tRp77
ag2
(g4
S'\xafG\x01?'
tRp78
ag2
(g4
S'2\x08\x00?'
tRp79
ag2
(g4
S'\x92\xed\x00?'
tRp80
ag2
(g4
S'sh\x01?'
tRp81
ag2
(g4
S'(1\x00?'
tRp82
ag2
(g4
S'8\x89\x01?'
tRp83
ag2
(g4
S'\xd4M\x02?'
tRp84
ag2
(g4
S'\xc1\xca\x01?'
tRp85
ag2
(g4
S'\xafG\x01?'
tRp86
ag2
(g4
S'@5\x02?'
tRp87
ag2
(g4
S'r=\x02?'
tRp88
ag2
(g4
S'\xf3\xd2\x01?'
tRp89
ag2
(g4
S'\xde$\x02?'
tRp90
ag2
(g4
S'-\xb2\x01?'
tRp91
ag2
(g4
S'\xb6\xc8\x02?'
tRp92
ag2
(g4
S'U\xe3\x01?'
tRp93
ag2
(g4
S'\x8aA\x04?'
tRp94
ag2
(g4
S'\xb7\xf3\x01?'
tRp95
ag2
(g4
S'\xd4M\x02?'
tRp96
ag2
(g4
S'\x17\xd9\x02?'
tRp97
ag2
(g4
S'\x92\xed\x00?'
tRp98
ag2
(g4
S'\x07\x81\x05?'
tRp99
ag2
(g4
S'H\xe1\x02?'
tRp100
ag2
(g4
S'\xe2z\x00?'
tRp101
ag2
(g4
S'\x84\xc0\x02?'
tRp102
ag2
(g4
S'\xd3M\x02?'
tRp103
ag2
(g4
S'\x9a\x99\x01?'
tRp104
ag2
(g4
S'\x9e\xef\x03?'
tRp105
ag2
(g4
S'e;\x03?'
tRp106
ag2
(g4
S'\x19\x04\x02?'
tRp107
ag2
(g4
S'33\x03?'
tRp108
ag2
(g4
S'e;\x03?'
tRp109
ag2
(g4
S'\xbf\x9f\x02?'
tRp110
ag2
(g4
S'\xda\xce\x03?'
tRp111
ag2
(g4
S'\xc9v\x02?'
tRp112
ag2
(g4
S'a\xe5\x04?'
tRp113
ag2
(g4
S'\xda\xce\x03?'
tRp114
ag2
(g4
S'\x97C\x03?'
tRp115
ag2
(g4
S'\xb3\x9d\x03?'
tRp116
ag2
(g4
S'H\xe1\x02?'
tRp117
ag2
(g4
S'\x0b\xd7\x03?'
tRp118
ag2
(g4
S'\x96C\x03?'
tRp119
ag2
(g4
S'\xa7\x9b\x04?'
tRp120
ag2
(g4
S'\xb3\x9d\x03?'
tRp121
ag2
(g4
S'\x03+\x03?'
tRp122
ag2
(g4
S'\xbdt\x03?'
tRp123
ag2
(g4
S'\x0b\xd7\x03?'
tRp124
ag2
(g4
S'\xf4\xfd\x04?'
tRp125
ag2
(g4
S'2\x08\x04?'
tRp126
ag2
(g4
S'\xe0O\x05?'
tRp127
ag2
(g4
S'\xeb&\x05?'
tRp128
ag2
(g4
S'\x1dZ\x04?'
tRp129
ag2
(g4
S'&\x06\x05?'
tRp130
ag2
(g4
S'}?\x05?'
tRp131
ag2
(g4
S'\n\xac\x04?'
tRp132
ag2
(g4
S'\xafG\x05?'
tRp133
ag2
(g4
S'\x82\x95\x03?'
tRp134
ag2
(g4
S'\xe4\xa5\x03?'
tRp135
ag2
(g4
S'F\xb6\x03?'
tRp136
ag2
(g4
S':\xb4\x04?'
tRp137
ag2
(g4
S'\x94\x18\x04?'
tRp138
ag2
(g4
S'\xfe\xd4\x04?'
tRp139
ag2
(g4
S'\x00\x00\x04?'
tRp140
ag2
(g4
S'\xc3\xf5\x04?'
tRp141
ag2
(g4
S'S\xb8\x02?'
tRp142
ag2
(g4
S'\xc3\xf5\x04?'
tRp143
ag2
(g4
S'H\xe1\x02?'
tRp144
ag2
(g4
S'\x1b/\x05?'
tRp145
ag2
(g4
S'\xb3\x9d\x03?'
tRp146
ag2
(g4
S'\xee|\x03?'
tRp147
ag2
(g4
S'\r\x02\x03?'
tRp148
ag2
(g4
S'.\xb2\x05?'
tRp149
ag2
(g4
S'\r\x02\x03?'
tRp150
ag2
(g4
S'\xf8S\x03?'
tRp151
ag2
(g4
S'sh\x05?'
tRp152
ag2
(g4
S'k\xbc\x04?'
tRp153
ag2
(g4
S'\xa2E\x02?'
tRp154
ag2
(g4
S'\xc2\xca\x01?'
tRp155
ag2
(g4
S'Nb\x04?'
tRp156
ag2
(g4
S'\xcd\xcc\x04?'
tRp157
ag2
(g4
S',\x87\x02?'
tRp158
ag2
(g4
S'\xa8\xc6\x03?'
tRp159
ag2
(g4
S'c\x10\x04?'
tRp160
ag2
(g4
S'{\x14\x06?'
tRp161
ag2
(g4
S'\xf4\xfd\x04?'
tRp162
ag2
(g4
S'\x90\xc2\x05?'
tRp163
ag2
(g4
S'\xf4\xfd\x04?'
tRp164
ag2
(g4
S'\x07\x81\x05?'
tRp165
ag2
(g4
S'\x1b/\x05?'
tRp166
ag2
(g4
S':\xb4\x04?'
tRp167
ag2
(g4
S'sh\x05?'
tRp168
ag2
(g4
S'm\xe7\x03?'
tRp169
ag2
(g4
S'D\x8b\x04?'
tRp170
ag2
(g4
S'$\xdb\x05?'
tRp171
ag2
(g4
S'6^\x06?'
tRp172
ag2
(g4
S'-\xb2\x05?'
tRp173
ag2
(g4
S'\xff\xd4\x04?'
tRp174
ag2
(g4
S'\xf6(\x04?'
tRp175
ag2
(g4
S'\xd8\xa3\x04?'
tRp176
ag2
(g4
S'\xd5x\x05?'
tRp177
ag2
(g4
S'\xf2\xd2\x05?'
tRp178
ag2
(g4
S'\xb1r\x04?'
tRp179
ag2
(g4
S'\xdc\xf9\x02?'
tRp180
ag2
(g4
S'\xcav\x06?'
tRp181
ag2
(g4
S'\x88\x16\x05?'
tRp182
ag2
(g4
S'\x0f-\x06?'
tRp183
ag2
(g4
S'Ob\x04?'
tRp184
ag2
(g4
S'\xcc\xa1\x05?'
tRp185
ag2
(g4
S'"\xb0\x06?'
tRp186
ag2
(g4
S'y\xe9\x06?'
tRp187
ag2
(g4
S'\xa3E\x06?'
tRp188
ag2
(g4
S'\x0f-\x06?'
tRp189
ag2
(g4
S'\xdb\xf9\x02?'
tRp190
ag2
(g4
S'\xcc\xa1\x05?'
tRp191
ag2
(g4
S'8\x89\x05?'
tRp192
ag2
(g4
S'th\x05?'
tRp193
ag2
(g4
S'\x1b/\x05?'
tRp194
ag2
(g4
S'\x1dZ\x04?'
tRp195
ag2
(g4
S'\x9a\x99\x05?'
tRp196
ag2
(g4
S'\x05V\x06?'
tRp197
ag2
(g4
S'\xcav\x06?'
tRp198
ag2
(g4
S'\x1a\x04\x06?'
tRp199
ag2
(g4
S'\xf0\xa7\x06?'
tRp200
ag2
(g4
S'\xc5 \x08?'
tRp201
ag2
(g4
S'\x84\xc0\x06?'
tRp202
ag2
(g4
S'\xbdt\x07?'
tRp203
ag2
(g4
S'F\xb6\x07?'
tRp204
ag2
(g4
S'$\xdb\x05?'
tRp205
ag2
(g4
S'\xee|\x07?'
tRp206
ag2
(g4
S'\xa2E\x06?'
tRp207
ag2
(g4
S'\x17\xd9\x06?'
tRp208
ag2
(g4
S'n\xe7\x07?'
tRp209
ag2
(g4
S'\x8e\x97\x06?'
tRp210
ag2
(g4
S'<\xdf\x07?'
tRp211
ag2
(g4
S'\xb1r\x08?'
tRp212
ag2
(g4
S'\xd0\xf7\x07?'
tRp213
ag2
(g4
S'\x1eZ\x08?'
tRp214
ag2
(g4
S'\xf6(\x08?'
tRp215
ag2
(g4
S'\xbbI\x08?'
tRp216
ag2
(g4
S'\xf6(\x08?'
tRp217
ag2
(g4
S':\xb4\x08?'
tRp218
ag2
(g4
S'\x88\x16\t?'
tRp219
ag2
(g4
S'\xcb\xa1\t?'
tRp220
ag2
(g4
S'\xff\xd4\x08?'
tRp221
ag2
(g4
S'_\xba\t?'
tRp222
ag2
(g4
S':\xb4\x08?'
tRp223
ag2
(g4
S'\xbf\x9f\n?'
tRp224
ag2
(g4
S'\xa4p\t?'
tRp225
ag2
(g4
S'gf\n?'
tRp226
ag2
(g4
S'\x9d\xc4\x08?'
tRp227
ag2
(g4
S'q=\n?'
tRp228
ag2
(g4
S'\xb7\xf3\t?'
tRp229
ag2
(g4
S'\xd0\xf7\x0b?'
tRp230
ag2
(g4
S'c\x10\x0c?'
tRp231
ag2
(g4
S'\xbbI\x0c?'
tRp232
ag2
(g4
S'53\x0b?'
tRp233
ag2
(g4
S'0\xdd\x0c?'
tRp234
ag2
(g4
S'm\xe7\x0b?'
tRp235
ag2
(g4
S'\xce\xcc\x0c?'
tRp236
ag2
(g4
S'\xa0\x1a\x0f?'
tRp237
ag2
(g4
S'\x06\x81\r?'
tRp238
ag2
(g4
S'\x07\x81\r?'
tRp239
ag2
(g4
S'\xfd\xa9\r?'
tRp240
ag2
(g4
S'\xba\x1e\r?'
tRp241
ag2
(g4
S'L7\r?'
tRp242
ag2
(g4
S'r=\x0e?'
tRp243
ag2
(g4
S'%\x06\r?'
tRp244
ag2
(g4
S'Zd\x0f?'
tRp245
ag2
(g4
S'\xe8\xfb\r?'
tRp246
ag2
(g4
S',\x87\x0e?'
tRp247
ag2
(g4
S'B`\r?'
tRp248
ag2
(g4
S'm\xe7\x0f?'
tRp249
ag2
(g4
S'\xda\xce\x0f?'
tRp250
ag2
(g4
S'\xbbI\x10?'
tRp251
ag2
(g4
S'm\xe7\x0f?'
tRp252
ag2
(g4
S'\x1b/\x11?'
tRp253
ag2
(g4
S'S\xb8\x12?'
tRp254
ag2
(g4
S'\xd6x\x11?'
tRp255
ag2
(g4
S'\xe2z\x10?'
tRp256
ag2
(g4
S'\x18\xd9\x12?'
tRp257
ag2
(g4
S'\x19\x04\x12?'
tRp258
ag2
(g4
S'1\x08\x14?'
tRp259
ag2
(g4
S'\xbet\x13?'
tRp260
ag2
(g4
S'\x15\xae\x13?'
tRp261
ag2
(g4
S'\xd9\xce\x13?'
tRp262
ag2
(g4
S'\xcf\xf7\x13?'
tRp263
ag2
(g4
S'\x92\xed\x14?'
tRp264
ag2
(g4
S'\x8aA\x14?'
tRp265
ag2
(g4
S'\x8e\x97\x16?'
tRp266
ag2
(g4
S'\xc7K\x13?'
tRp267
ag2
(g4
S'9\x89\x15?'
tRp268
ag2
(g4
S'y\xe9\x16?'
tRp269
ag2
(g4
S'\xa0\x1a\x17?'
tRp270
ag2
(g4
S'\xc3\xf5\x14?'
tRp271
ag2
(g4
S'J\x0c\x16?'
tRp272
ag2
(g4
S'\x8aA\x18?'
tRp273
ag2
(g4
S'\x1eZ\x14?'
tRp274
ag2
(g4
S'\x0e-\x16?'
tRp275
ag2
(g4
S'\xecQ\x18?'
tRp276
ag2
(g4
S'\xf4\xfd\x18?'
tRp277
ag2
(g4
S'\x9a\x99\x19?'
tRp278
ag2
(g4
S'\xf0\xa7\x1a?'
tRp279
ag2
(g4
S'\xb9\x1e\x19?'
tRp280
ag2
(g4
S'\x17\xd9\x1a?'
tRp281
ag2
(g4
S'\xf5\xfd\x18?'
tRp282
ag2
(g4
S'r=\x1a?'
tRp283
ag2
(g4
S'@5\x1a?'
tRp284
ag2
(g4
S'p\x12\x1b?'
tRp285
ag2
(g4
S'\x81\x95\x1b?'
tRp286
ag2
(g4
S'\xd2"\x1b?'
tRp287
ag2
(g4
S'\x83\xc0\x1a?'
tRp288
ag2
(g4
S'\xecQ\x1c?'
tRp289
ag2
(g4
S'\xbdt\x1b?'
tRp290
ag2
(g4
S'\x9f\xef\x1b?'
tRp291
ag2
(g4
S'\xb7\xf3\x1d?'
tRp292
ag2
(g4
S'\xe9\xfb\x1d?'
tRp293
ag2
(g4
S'\x90\xc2\x1d?'
tRp294
ag2
(g4
S'\xecQ ?'
tRp295
ag2
(g4
S'_\xba!?'
tRp296
ag2
(g4
S'L7!?'
tRp297
ag2
(g4
S'\x0f-"?'
tRp298
ag2
(g4
S'c\x10$?'
tRp299
ag2
(g4
S'\x04V"?'
tRp300
ag2
(g4
S'v\x93 ?'
tRp301
ag2
(g4
S'u\x93$?'
tRp302
ag2
(g4
S'\xcav&?'
tRp303
ag2
(g4
S'&\x06%?'
tRp304
ag2
(g4
S'\xfe\xd4$?'
tRp305
ag2
(g4
S'\xc2\xca%?'
tRp306
ag2
(g4
S'\xd6x)?'
tRp307
ag2
(g4
S'\xdb\xf9&?'
tRp308
ag2
(g4
S'r=&?'
tRp309
ag2
(g4
S'\x85\xc0*?'
tRp310
ag2
(g4
S'\x17\xd9*?'
tRp311
ag2
(g4
S'\xac\xf1*?'
tRp312
ag2
(g4
S'u\x93,?'
tRp313
ag2
(g4
S'\xf2\xd2-?'
tRp314
ag2
(g4
S'\x04V.?'
tRp315
ag2
(g4
S'\x16\xae/?'
tRp316
ag2
(g4
S'\x18\xd9.?'
tRp317
ag2
(g4
S'6^.?'
tRp318
ag2
(g4
S'\xe6\xd02?'
tRp319
ag2
(g4
S'\x80j4?'
tRp320
ag2
(g4
S'\x91\xed0?'
tRp321
ag2
(g4
S'~?5?'
tRp322
ag2
(g4
S'\xb7\xf35?'
tRp323
ag2
(g4
S'\x80j8?'
tRp324
ag2
(g4
S'\xa7\x9b8?'
tRp325
ag2
(g4
S'/\xb29?'
tRp326
ag2
(g4
S'\x8aA<?'
tRp327
ag2
(g4
S'W\x0e5?'
tRp328
ag2
(g4
S'\xc0\x9f>?'
tRp329
ag2
(g4
S'\x1a\x04:?'
tRp330
ag2
(g4
S'\xafG5?'
tRp331
ag2
(g4
S'\xf2\xa7>?'
tRp332
ag2
(g4
S'#\xdbA?'
tRp333
ag2
(g4
S'\xc2\xcaA?'
tRp334
ag2
(g4
S'\xedQD?'
tRp335
ag2
(g4
S'\xfc~F?'
tRp336
ag2
(g4
S'&\x06E?'
tRp337
ag2
(g4
S'\xc7KG?'
tRp338
ag2
(g4
S'\x02\x00H?'
tRp339
ag2
(g4
S'3\x08L?'
tRp340
ag2
(g4
S'9\x89I?'
tRp341
ag2
(g4
S'\x88\x16M?'
tRp342
ag2
(g4
S'\xf5\xfdL?'
tRp343
ag2
(g4
S'\xd6xM?'
tRp344
ag2
(g4
S'\xa9\xc6O?'
tRp345
ag2
(g4
S'\n\xacL?'
tRp346
ag2
(g4
S'/\xb2Q?'
tRp347
ag2
(g4
S'Q\x8dS?'
tRp348
ag2
(g4
S'.\xb2M?'
tRp349
ag2
(g4
S'\xc8KS?'
tRp350
ag2
(g4
S'\x90\xc2U?'
tRp351
ag2
(g4
S'6^R?'
tRp352
ag2
(g4
S'#\xdbQ?'
tRp353
ag2
(g4
S'\xb2rX?'
tRp354
ag2
(g4
S'\x94\xedX?'
tRp355
ag2
(g4
S'M7]?'
tRp356
ag2
(g4
S'\x88\x16]?'
tRp357
ag2
(g4
S'\x19\xd9^?'
tRp358
ag2
(g4
S'\xecQ`?'
tRp359
ag2
(g4
S'\x89\x16a?'
tRp360
ag2
(g4
S'\xf0\xa7^?'
tRp361
ag2
(g4
S'\x96C_?'
tRp362
ag2
(g4
S'\xc8K_?'
tRp363
ag2
(g4
S'\x8aAd?'
tRp364
ag2
(g4
S'\x03+g?'
tRp365
ag2
(g4
S'\xe3zh?'
tRp366
ag2
(g4
S'z\xe9f?'
tRp367
ag2
(g4
S'\x15\xaeg?'
tRp368
ag2
(g4
S'\xd6xi?'
tRp369
ag2
(g4
S'\xad\x1cj?'
tRp370
ag2
(g4
S'k\xbch?'
tRp371
ag2
(g4
S'\xd6xi?'
tRp372
ag2
(g4
S'\xf2\xd2i?'
tRp373
ag2
(g4
S'\xc6 l?'
tRp374
ag2
(g4
S'\x06Vn?'
tRp375
ag2
(g4
S'\xbf\x9ff?'
tRp376
ag2
(g4
S'\x86\xebi?'
tRp377
ag2
(g4
S'\xb9\x1eq?'
tRp378
ag2
(g4
S'\x14\x83p?'
tRp379
ag2
(g4
S'\x81jp?'
tRp380
ag2
(g4
S'\xba\x1eq?'
tRp381
ag2
(g4
S'\x82jp?'
tRp382
ag2
(g4
S'\x99nr?'
tRp383
ag2
(g4
S'\x91\xc2m?'
tRp384
ag2
(g4
S'\xc0\x9fr?'
tRp385
ag2
(g4
S'\xa2\x1as?'
tRp386
ag2
(g4
S'\xe8\xd0r?'
tRp387
ag2
(g4
S'\xff\xd4t?'
tRp388
ag2
(g4
S'd;s?'
tRp389
ag2
(g4
S'53w?'
tRp390
ag2
(g4
S'>\xdfw?'
tRp391
ag2
(g4
S'\x99nv?'
tRp392
ag2
(g4
S'v\x93x?'
tRp393
ag2
(g4
S'\xd3"o?'
tRp394
ag2
(g4
S'\xb5\x9dw?'
tRp395
ag2
(g4
S'\x94\x18x?'
tRp396
ag2
(g4
S'L\x0cz?'
tRp397
ag2
(g4
S'\x91\xc2q?'
tRp398
ag2
(g4
S'\t\xacx?'
tRp399
ag2
(g4
S'\xc3\xcay?'
tRp400
ag2
(g4
S'\xd9\xa3x?'
tRp401
ag2
(g4
S'\x1a\x04z?'
tRp402
ag2
(g4
S'c\x10|?'
tRp403
ag2
(g4
S'\\ds?'
tRp404
ag2
(g4
S'~\x14z?'
tRp405
ag2
(g4
S'H\xe1z?'
tRp406
ag2
(g4
S'\x93\xedt?'
tRp407
ag2
(g4
S'\xf1\xa7z?'
tRp408
ag2
(g4
S'\xb5\xc8z?'
tRp409
ag2
(g4
S'\xa0\xef{?'
tRp410
ag2
(g4
S'\xe5\xa5{?'
tRp411
ag2
(g4
S'u\x93|?'
tRp412
ag2
(g4
S'C`q?'
tRp413
ag2
(g4
S'\x1c/y?'
tRp414
ag2
(g4
S'C`u?'
tRp415
ag2
(g4
S'\xb1r|?'
tRp416
ag2
(g4
S'\xce\xccx?'
tRp417
ag2
(g4
S'V\x0e}?'
tRp418
ag2
(g4
S'Ob|?'
tRp419
ag2
(g4
S'\xce\xcc|?'
tRp420
ag2
(g4
S'hfz?'
tRp421
ag2
(g4
S'\xad\x1cv?'
tRp422
ag2
(g4
S'\x8bAx?'
tRp423
ag2
(g4
S'V\x0e}?'
tRp424
ag2
(g4
S'\xa2\x1a{?'
tRp425
ag2
(g4
S'\xc0\x9fz?'
tRp426
ag2
(g4
S'\x9anz?'
tRp427
ag2
(g4
S'T\xb8~?'
tRp428
ag2
(g4
S'\xb8\xf3q?'
tRp429
ag2
(g4
S'6^z?'
tRp430
ag2
(g4
S'r=~?'
tRp431
ag2
(g4
S'\xc9v~?'
tRp432
ag2
(g4
S'S\xb8~?'
tRp433
ag2
(g4
S'\xfd\xa9u?'
tRp434
ag2
(g4
S'\xc4\xf5|?'
tRp435
ag2
(g4
S'\x0e\x02\x7f?'
tRp436
ag2
(g4
S'\xfe\xd4|?'
tRp437
ag2
(g4
S'\xd7x}?'
tRp438
ag2
(g4
S'\x12X}?'
tRp439
ag2
(g4
S'\x8cl{?'
tRp440
ag2
(g4
S'\x93\xedx?'
tRp441
ag2
(g4
S'\x0f-~?'
tRp442
ag2
(g4
S'_\xba}?'
tRp443
ag2
(g4
S';\xb4|?'
tRp444
ag2
(g4
S'R\x8ds?'
tRp445
ag2
(g4
S'\x15\x83|?'
tRp446
ag2
(g4
S'"\xb0~?'
tRp447
ag2
(g4
S'\xc9K\x7f?'
tRp448
ag2
(g4
S'\x1a\x04~?'
tRp449
ag2
(g4
S'\x8el\x7f?'
tRp450
ag2
(g4
S'\x0c\xd7w?'
tRp451
ag2
(g4
S'\x07\x81y?'
tRp452
ag2
(g4
S'\xb0G}?'
tRp453
ag2
(g4
S'2\x08x?'
tRp454
ag2
(g4
S'\xb8\xf3}?'
tRp455
ag2
(g4
S'<\xb4|?'
tRp456
ag2
(g4
S'\xe0$~?'
tRp457
ag2
(g4
S'|\x14~?'
tRp458
ag2
(g4
S'H\xe1~?'
tRp459
ag2
(g4
S'"\x85s?'
tRp460
ag2
(g4
S'\xa4E~?'
tRp461
ag2
(g4
S'\xb5\xc8~?'
tRp462
ag2
(g4
S'\x1fZ|?'
tRp463
ag2
(g4
S'\x87\xeb}?'
tRp464
ag2
(g4
S'A\n\x7f?'
tRp465
ag2
(g4
S'\x03+\x7f?'
tRp466
ag2
(g4
S'\xa9\xc6{?'
tRp467
ag2
(g4
S'\xbf\x9f~?'
tRp468
ag2
(g4
S'C`}?'
tRp469
ag2
(g4
S'\xc0\x9fz?'
tRp470
ag2
(g4
S'\xcav~?'
tRp471
ag2
(g4
S'\xba\x1e}?'
tRp472
ag2
(g4
S'\xde\xf9~?'
tRp473
ag2
(g4
S'f;s?'
tRp474
ag2
(g4
S'\xd9\xa3|?'
tRp475
ag2
(g4
S'\xbft\x7f?'
tRp476
ag2
(g4
S'\xe5\xa5\x7f?'
tRp477
ag2
(g4
S'z\xe9~?'
tRp478
ag2
(g4
S'\x03+{?'
tRp479
ag2
(g4
S'\x06\x81}?'
tRp480
ag2
(g4
S'"\xb0~?'
tRp481
ag2
(g4
S'\xedQ|?'
tRp482
ag2
(g4
S'\x0e\x02\x7f?'
tRp483
ag2
(g4
S'\xf8(x?'
tRp484
ag2
(g4
S'\xdc\xf9~?'
tRp485
ag2
(g4
S'\x9e\xc4|?'
tRp486
ag2
(g4
S'\x8dl\x7f?'
tRp487
ag2
(g4
S'A5~?'
tRp488
ag2
(g4
S'`\xba}?'
tRp489
ag2
(g4
S'\xec&}?'
tRp490
ag2
(g4
S'\x98C\x7f?'
tRp491
ag2
(g4
S'\xae\x1c~?'
tRp492
ag2
(g4
S'H\xb6\x7f?'
tRp493
ag2
(g4
S'\x87\xeb}?'
tRp494
ag2
(g4
S'43\x7f?'
tRp495
ag2
(g4
S'\xfaS\x7f?'
tRp496
ag2
(g4
S'?\n\x7f?'
tRp497
ag2
(g4
S'\xea&u?'
tRp498
ag2
(g4
S'\xe4\xa5{?'
tRp499
ag2
(g4
S'*\\\x7f?'
tRp500
ag2
(g4
S'R\xb8~?'
tRp501
ag2
(g4
S'r=~?'
tRp502
ag2
(g4
S'\x84\x95\x7f?'
tRp503
ag2
(g4
S'.\xb2y?'
tRp504
ag2
(g4
S'\xa1\x1a\x7f?'
tRp505
ag2
(g4
S'\xa0\xef{?'
tRp506
ag2
(g4
S'`\xba}?'
tRp507
ag2
(g4
S'gf~?'
tRp508
ag2
(g4
S'\xf1|\x7f?'
tRp509
ag2
(g4
S'\xaa\xc6\x7f?'
tRp510
ag2
(g4
S'\xd0\xf7\x7f?'
tRp511
ag2
(g4
S'\xaa\xc6\x7f?'
tRp512
ag2
(g4
S'l\xbc|?'
tRp513
ag2
(g4
S'\x10-~?'
tRp514
ag2
(g4
S'63\x7f?'
tRp515
ag2
(g4
S'^\x8f~?'
tRp516
ag2
(g4
S'f;\x7f?'
tRp517
ag2
(g4
S'p\x12\x7f?'
tRp518
ag2
(g4
S'\x16\xd9~?'
tRp519
ag2
(g4
S'\xdf$~?'
tRp520
ag2
(g4
S'a\xba}?'
tRp521
ag2
(g4
S',\x87~?'
tRp522
ag2
(g4
S'*\\\x7f?'
tRp523
ag2
(g4
S'R\x8d\x7f?'
tRp524
ag2
(g4
S'\r\xd7\x7f?'
tRp525
ag2
(g4
S'\x10-z?'
tRp526
ag2
(g4
S'\xf2\xd2}?'
tRp527
ag2
(g4
S'\xef|\x7f?'
tRp528
ag2
(g4
S'\xdb\xce\x7f?'
tRp529
ag2
(g4
S'\xb6\xc8z?'
tRp530
ag2
(g4
S'J\xe1~?'
tRp531
ag2
(g4
S'e;\x7f?'
tRp532
ag2
(g4
S'\xe1O}?'
tRp533
ag2
(g4
S'*\\\x7f?'
tRp534
ag2
(g4
S'\xe5\xd0~?'
tRp535
ag2
(g4
S'\x8e\x97~?'
tRp536
ag2
(g4
S'l\xbc|?'
tRp537
ag2
(g4
S'\xcav~?'
tRp538
ag2
(g4
S'?\n{?'
tRp539
ag2
(g4
S'\n\xac|?'
tRp540
ag2
(g4
S'\xae\x1c~?'
tRp541
ag2
(g4
S'\xe8\xd0~?'
tRp542
ag2
(g4
S'"\xb0~?'
tRp543
ag2
(g4
S'b\xe5|?'
tRp544
ag2
(g4
S'H\xe1~?'
tRp545
ag2
(g4
S's=~?'
tRp546
ag2
(g4
S'\x17\xd9~?'
tRp547
ag2
(g4
S'z\xe9~?'
tRp548
ag2
(g4
S'\x84\xc0~?'
tRp549
ag2
(g4
S'\xdb\xce\x7f?'
tRp550
a.