(lp1
cnumpy.core.multiarray
_reconstruct
p2
(cnumpy
ndarray
p3
(I0
tS'b'
tRp4
(I1
(I2
tcnumpy
dtype
p5
(S'f4'
I0
I1
tRp6
(I3
S'<'
NNNI-1
I-1
I0
tbI00
S'[A[>Z/`\xbf'
tbag2
(g3
(I0
tS'b'
tRp7
(I1
(I2
tg6
I00
S'\xb9\xc0K>:O\\\xbf'
tbag2
(g3
(I0
tS'b'
tRp8
(I1
(I2
tg6
I00
S'_\xa4C>"HZ\xbf'
tbag2
(g3
(I0
tS'b'
tRp9
(I1
(I2
tg6
I00
S'\xc0\xb9=>\x80\xcdX\xbf'
tbag2
(g3
(I0
tS'b'
tRp10
(I1
(I2
tg6
I00
S'u\xfa3>\xb9]V\xbf'
tbag2
(g3
(I0
tS'b'
tRp11
(I1
(I2
tg6
I00
S'\xb650>\x8dlU\xbf'
tbag2
(g3
(I0
tS'b'
tRp12
(I1
(I2
tg6
I00
S'\x9e\t&>\x81\xe1R\xbf'
tbag2
(g3
(I0
tS'b'
tRp13
(I1
(I2
tg6
I00
S'\x8a\xfe >\xbb\x9eQ\xbf'
tbag2
(g3
(I0
tS'b'
tRp14
(I1
(I2
tg6
I00
S'\xce\x10\x16>L\xe3N\xbf'
tbag2
(g3
(I0
tS'b'
tRp15
(I1
(I2
tg6
I00
S'f\xbf\x12>\xeb\x0eN\xbf'
tbag2
(g3
(I0
tS'b'
tRp16
(I1
(I2
tg6
I00
S'oq\x12>b\xfbM\xbf'
tbag2
(g3
(I0
tS'b'
tRp17
(I1
(I2
tg6
I00
S'\xd9\xda\t>\xc2\xd5K\xbf'
tbag2
(g3
(I0
tS'b'
tRp18
(I1
(I2
tg6
I00
S'\xa8\xb0\x05>;\xcbJ\xbf'
tbag2
(g3
(I0
tS'b'
tRp19
(I1
(I2
tg6
I00
S'\xd2\xe8\r>Q\xd9L\xbf'
tbag2
(g3
(I0
tS'b'
tRp20
(I1
(I2
tg6
I00
S'!\xa4\x02>(\x08J\xbf'
tbag2
(g3
(I0
tS'b'
tRp21
(I1
(I2
tg6
I00
S'\x08\xbc\xf3=\xa8\xd6G\xbf'
tbag2
(g3
(I0
tS'b'
tRp22
(I1
(I2
tg6
I00
S'#\xe0\xea=*\xbbF\xbf'
tbag2
(g3
(I0
tS'b'
tRp23
(I1
(I2
tg6
I00
S'\xd2T\xef=\xbdIG\xbf'
tbag2
(g3
(I0
tS'b'
tRp24
(I1
(I2
tg6
I00
S'\x97k\xf6=\x8e,H\xbf'
tbag2
(g3
(I0
tS'b'
tRp25
(I1
(I2
tg6
I00
S'\xcd\xdf\xeb=\x0e\xdbF\xbf'
tbag2
(g3
(I0
tS'b'
tRp26
(I1
(I2
tg6
I00
S'{\xfd\xe2=\xc4\xbeE\xbf'
tbag2
(g3
(I0
tS'b'
tRp27
(I1
(I2
tg6
I00
S'\xed+\xe5=\x8f\x04F\xbf'
tbag2
(g3
(I0
tS'b'
tRp28
(I1
(I2
tg6
I00
S'Ba\xd9=>\x8bD\xbf'
tbag2
(g3
(I0
tS'b'
tRp29
(I1
(I2
tg6
I00
S'\xa8\x93\xcb=\x93\xd1B\xbf'
tbag2
(g3
(I0
tS'b'
tRp30
(I1
(I2
tg6
I00
S'2\x08\xc9=-\x80B\xbf'
tbag2
(g3
(I0
tS'b'
tRp31
(I1
(I2
tg6
I00
S'\xbb\x10\xc5==\x01B\xbf'
tbag2
(g3
(I0
tS'b'
tRp32
(I1
(I2
tg6
I00
S'_h\xbc=4\xec@\xbf'
tbag2
(g3
(I0
tS'b'
tRp33
(I1
(I2
tg6
I00
S'\xb6\xe5\xb7=\xdd[@\xbf'
tbag2
(g3
(I0
tS'b'
tRp34
(I1
(I2
tg6
I00
S'8\xc0\xba=!\xb7@\xbf'
tbag2
(g3
(I0
tS'b'
tRp35
(I1
(I2
tg6
I00
S'W\xfd\xb1=\xc0\x9e?\xbf'
tbag2
(g3
(I0
tS'b'
tRp36
(I1
(I2
tg6
I00
S'/\xb6\xae=\xd45?\xbf'
tbag2
(g3
(I0
tS'b'
tRp37
(I1
(I2
tg6
I00
S'\xe2$\xb1=\xa8\x83?\xbf'
tbag2
(g3
(I0
tS'b'
tRp38
(I1
(I2
tg6
I00
S"\xf7'\xac=\x11\xe4>\xbf"
tbag2
(g3
(I0
tS'b'
tRp39
(I1
(I2
tg6
I00
S'\xcb\xa1\xad=Y\x13?\xbf'
tbag2
(g3
(I0
tS'b'
tRp40
(I1
(I2
tg6
I00
S'\x1eB\xba=g\xa7@\xbf'
tbag2
(g3
(I0
tS'b'
tRp41
(I1
(I2
tg6
I00
S'\xac\xcc\x9f=\xb7X=\xbf'
tbag2
(g3
(I0
tS'b'
tRp42
(I1
(I2
tg6
I00
S'4\xcb\xa4=|\xf8=\xbf'
tbag2
(g3
(I0
tS'b'
tRp43
(I1
(I2
tg6
I00
S'[\x11\xb6=9!@\xbf'
tbag2
(g3
(I0
tS'b'
tRp44
(I1
(I2
tg6
I00
S'=a\x9c=9\xeb<\xbf'
tbag2
(g3
(I0
tS'b'
tRp45
(I1
(I2
tg6
I00
S'\xf2S\x94=\x97\xe9;\xbf'
tbag2
(g3
(I0
tS'b'
tRp46
(I1
(I2
tg6
I00
S'*"\x9c=a\xe3<\xbf'
tbag2
(g3
(I0
tS'b'
tRp47
(I1
(I2
tg6
I00
S'n\x0b\x8f=\x90@;\xbf'
tbag2
(g3
(I0
tS'b'
tRp48
(I1
(I2
tg6
I00
S'\x94V\x8b=\xfc\xc9:\xbf'
tbag2
(g3
(I0
tS'b'
tRp49
(I1
(I2
tg6
I00
S'\xfe\xb3\x95=\xb1\x15<\xbf'
tbag2
(g3
(I0
tS'b'
tRp50
(I1
(I2
tg6
I00
S'\x0e\xab\x98=\x8bt<\xbf'
tbag2
(g3
(I0
tS'b'
tRp51
(I1
(I2
tg6
I00
S'ns\x83=\x9d\xcd9\xbf'
tbag2
(g3
(I0
tS'b'
tRp52
(I1
(I2
tg6
I00
S'.\n\x8e=| ;\xbf'
tbag2
(g3
(I0
tS'b'
tRp53
(I1
(I2
tg6
I00
S'\x06H\x8b=B\xc8:\xbf'
tbag2
(g3
(I0
tS'b'
tRp54
(I1
(I2
tg6
I00
S':\x03\x8c=\xa3\xdf:\xbf'
tbag2
(g3
(I0
tS'b'
tRp55
(I1
(I2
tg6
I00
S'0K\x82=\x94\xa89\xbf'
tbag2
(g3
(I0
tS'b'
tRp56
(I1
(I2
tg6
I00
S'g?\x81=\x12\x879\xbf'
tbag2
(g3
(I0
tS'b'
tRp57
(I1
(I2
tg6
I00
S'\x06\xd5o=i\\8\xbf'
tbag2
(g3
(I0
tS'b'
tRp58
(I1
(I2
tg6
I00
S'\x98\xb2u=A\xba8\xbf'
tbag2
(g3
(I0
tS'b'
tRp59
(I1
(I2
tg6
I00
S'\x7fNc=\xf6\x937\xbf'
tbag2
(g3
(I0
tS'b'
tRp60
(I1
(I2
tg6
I00
S'5\xe4\x83=\x96\xdb9\xbf'
tbag2
(g3
(I0
tS'b'
tRp61
(I1
(I2
tg6
I00
S'O&\x80=\xe6c9\xbf'
tbag2
(g3
(I0
tS'b'
tRp62
(I1
(I2
tg6
I00
S'\x1d\xeb\x8d=\x8d\x1c;\xbf'
tbag2
(g3
(I0
tS'b'
tRp63
(I1
(I2
tg6
I00
S'6\xebs=\xe1\x9d8\xbf'
tbag2
(g3
(I0
tS'b'
tRp64
(I1
(I2
tg6
I00
S'\xb2\x01\x8d=d\xff:\xbf'
tbag2
(g3
(I0
tS'b'
tRp65
(I1
(I2
tg6
I00
S"'4y=v\xf28\xbf"
tbag2
(g3
(I0
tS'b'
tRp66
(I1
(I2
tg6
I00
S'$$c=}\x917\xbf'
tbag2
(g3
(I0
tS'b'
tRp67
(I1
(I2
tg6
I00
S'\xc0pt=G\xa68\xbf'
tbag2
(g3
(I0
tS'b'
tRp68
(I1
(I2
tg6
I00
S'\xef7z=\xbd\x029\xbf'
tbag2
(g3
(I0
tS'b'
tRp69
(I1
(I2
tg6
I00
S'^jS=\xdd\x956\xbf'
tbag2
(g3
(I0
tS'b'
tRp70
(I1
(I2
tg6
I00
S'Xkq=\xe0u8\xbf'
tbag2
(g3
(I0
tS'b'
tRp71
(I1
(I2
tg6
I00
S'\xb2\xe6\x89=\xfd\x9b:\xbf'
tbag2
(g3
(I0
tS'b'
tRp72
(I1
(I2
tg6
I00
S'~)J=\xc0\x016\xbf'
tbag2
(g3
(I0
tS'b'
tRp73
(I1
(I2
tg6
I00
S'\x00`g=)\xd57\xbf'
tbag2
(g3
(I0
tS'b'
tRp74
(I1
(I2
tg6
I00
S'l?H=0\xe35\xbf'
tbag2
(g3
(I0
tS'b'
tRp75
(I1
(I2
tg6
I00
S'\xfey_=\xcfV7\xbf'
tbag2
(g3
(I0
tS'b'
tRp76
(I1
(I2
tg6
I00
S'\x0e\x027=E\xcf4\xbf'
tbag2
(g3
(I0
tS'b'
tRp77
(I1
(I2
tg6
I00
S'\xe0zG=\xd6\xd65\xbf'
tbag2
(g3
(I0
tS'b'
tRp78
(I1
(I2
tg6
I00
S'\xdc=K=\xff\x126\xbf'
tbag2
(g3
(I0
tS'b'
tRp79
(I1
(I2
tg6
I00
S'*\x94T=]\xa86\xbf'
tbag2
(g3
(I0
tS'b'
tRp80
(I1
(I2
tg6
I00
S'\xba\xd6n=\x8cL8\xbf'
tbag2
(g3
(I0
tS'b'
tRp81
(I1
(I2
tg6
I00
S'\x06\xcc`=\xe6k7\xbf'
tbag2
(g3
(I0
tS'b'
tRp82
(I1
(I2
tg6
I00
S'4}4=\xf1\xa64\xbf'
tbag2
(g3
(I0
tS'b'
tRp83
(I1
(I2
tg6
I00
S',\x19)=\xac\xf03\xbf'
tbag2
(g3
(I0
tS'b'
tRp84
(I1
(I2
tg6
I00
S'A6`={b7\xbf'
tbag2
(g3
(I0
tS'b'
tRp85
(I1
(I2
tg6
I00
S'0J9=\xb6\xf34\xbf'
tbag2
(g3
(I0
tS'b'
tRp86
(I1
(I2
tg6
I00
S'\xaa\x060=\x82_4\xbf'
tbag2
(g3
(I0
tS'b'
tRp87
(I1
(I2
tg6
I00
S'\x10\x1b==\xc805\xbf'
tbag2
(g3
(I0
tS'b'
tRp88
(I1
(I2
tg6
I00
S'\x8b\xd2*=P\x0c4\xbf'
tbag2
(g3
(I0
tS'b'
tRp89
(I1
(I2
tg6
I00
S'`\x00\x16=7\xbf2\xbf'
tbag2
(g3
(I0
tS'b'
tRp90
(I1
(I2
tg6
I00
S'\xd1\xef2=5\x8e4\xbf'
tbag2
(g3
(I0
tS'b'
tRp91
(I1
(I2
tg6
I00
S'\xac,\t=\x03\xf21\xbf'
tbag2
(g3
(I0
tS'b'
tRp92
(I1
(I2
tg6
I00
S'\xc5\x85\x0e=\x8fG2\xbf'
tbag2
(g3
(I0
tS'b'
tRp93
(I1
(I2
tg6
I00
S'\x02\xc41=u{4\xbf'
tbag2
(g3
(I0
tS'b'
tRp94
(I1
(I2
tg6
I00
S'M[\x19=\xe9\xf42\xbf'
tbag2
(g3
(I0
tS'b'
tRp95
(I1
(I2
tg6
I00
S'\x89\\s=\x05\x958\xbf'
tbag2
(g3
(I0
tS'b'
tRp96
(I1
(I2
tg6
I00
S'\xc5\xb0==H:5\xbf'
tbag2
(g3
(I0
tS'b'
tRp97
(I1
(I2
tg6
I00
S'\x8b\xa9*=\xce\t4\xbf'
tbag2
(g3
(I0
tS'b'
tRp98
(I1
(I2
tg6
I00
S'c\x9d?=\x12Y5\xbf'
tbag2
(g3
(I0
tS'b'
tRp99
(I1
(I2
tg6
I00
S'\x12\x90\xe6<\xbf\x930\xbf'
tbag2
(g3
(I0
tS'b'
tRp100
(I1
(I2
tg6
I00
S'?(\x16=\xc1\xc12\xbf'
tbag2
(g3
(I0
tS'b'
tRp101
(I1
(I2
tg6
I00
S'\xb4\xa1\r=_92\xbf'
tbag2
(g3
(I0
tS'b'
tRp102
(I1
(I2
tg6
I00
S'\xfb\x1d(=\x1d\xe13\xbf'
tbag2
(g3
(I0
tS'b'
tRp103
(I1
(I2
tg6
I00
S'\x93\r&=\r\xc03\xbf'
tbag2
(g3
(I0
tS'b'
tRp104
(I1
(I2
tg6
I00
S'\xec\x1fA=6q5\xbf'
tbag2
(g3
(I0
tS'b'
tRp105
(I1
(I2
tg6
I00
S'\xa0[%=\xf9\xb43\xbf'
tbag2
(g3
(I0
tS'b'
tRp106
(I1
(I2
tg6
I00
S'\xbb\xbf(=:\xeb3\xbf'
tbag2
(g3
(I0
tS'b'
tRp107
(I1
(I2
tg6
I00
S'\xa0\xe1\xfe<AV1\xbf'
tbag2
(g3
(I0
tS'b'
tRp108
(I1
(I2
tg6
I00
S'tM4=\x12\xa44\xbf'
tbag2
(g3
(I0
tS'b'
tRp109
(I1
(I2
tg6
I00
S'\x90\xa5\r=\x8d92\xbf'
tbag2
(g3
(I0
tS'b'
tRp110
(I1
(I2
tg6
I00
S'#\xea\xf7<\x93\x1e1\xbf'
tbag2
(g3
(I0
tS'b'
tRp111
(I1
(I2
tg6
I00
S's\xb7\x9e;\xac\x9c*\xbf'
tbag2
(g3
(I0
tS'b'
tRp112
(I1
(I2
tg6
I00
S'\xfc\xfd\xf5<\x1f\x0f1\xbf'
tbag2
(g3
(I0
tS'b'
tRp113
(I1
(I2
tg6
I00
S'th\x1f=\xb8U3\xbf'
tbag2
(g3
(I0
tS'b'
tRp114
(I1
(I2
tg6
I00
S'u07=@\xd24\xbf'
tbag2
(g3
(I0
tS'b'
tRp115
(I1
(I2
tg6
I00
S'J\xc2\xc2<Hu/\xbf'
tbag2
(g3
(I0
tS'b'
tRp116
(I1
(I2
tg6
I00
S'\xb0\xf8O=\xbf^6\xbf'
tbag2
(g3
(I0
tS'b'
tRp117
(I1
(I2
tg6
I00
S'\x06\xf5#=\x8f\x9e3\xbf'
tbag2
(g3
(I0
tS'b'
tRp118
(I1
(I2
tg6
I00
S'E\xc7 =\xb8k3\xbf'
tbag2
(g3
(I0
tS'b'
tRp119
(I1
(I2
tg6
I00
S'J\x96\x1b=\xa9\x183\xbf'
tbag2
(g3
(I0
tS'b'
tRp120
(I1
(I2
tg6
I00
S'\x07\x1d&=\x18\xc13\xbf'
tbag2
(g3
(I0
tS'b'
tRp121
(I1
(I2
tg6
I00
S'\x97\x97\x1c=\xa6(3\xbf'
tbag2
(g3
(I0
tS'b'
tRp122
(I1
(I2
tg6
I00
S'vJ2=\xcb\x834\xbf'
tbag2
(g3
(I0
tS'b'
tRp123
(I1
(I2
tg6
I00
S'\xfd]J=\x02\x056\xbf'
tbag2
(g3
(I0
tS'b'
tRp124
(I1
(I2
tg6
I00
S'\x16\xed\x08=\xf1\xed1\xbf'
tbag2
(g3
(I0
tS'b'
tRp125
(I1
(I2
tg6
I00
S'\xa6>\x1f=\x0cS3\xbf'
tbag2
(g3
(I0
tS'b'
tRp126
(I1
(I2
tg6
I00
S'h\xb5\xc9<\xd9\xac/\xbf'
tbag2
(g3
(I0
tS'b'
tRp127
(I1
(I2
tg6
I00
S'\xd7\x0e\x8c<\xa2\xbf-\xbf'
tbag2
(g3
(I0
tS'b'
tRp128
(I1
(I2
tg6
I00
S'\xe4\x91@=Qh5\xbf'
tbag2
(g3
(I0
tS'b'
tRp129
(I1
(I2
tg6
I00
S'\xe8\x9f\r=292\xbf'
tbag2
(g3
(I0
tS'b'
tRp130
(I1
(I2
tg6
I00
S'0\xd3\xf2<\xce\xf50\xbf'
tbag2
(g3
(I0
tS'b'
tRp131
(I1
(I2
tg6
I00
S'\x90\x12S=^\x906\xbf'
tbag2
(g3
(I0
tS'b'
tRp132
(I1
(I2
tg6
I00
S'\xdf8\\=\xc1"7\xbf'
tbag2
(g3
(I0
tS'b'
tRp133
(I1
(I2
tg6
I00
S'p\x1c\xf1<\x1b\xe80\xbf'
tbag2
(g3
(I0
tS'b'
tRp134
(I1
(I2
tg6
I00
S'#\x0c(=\xf6\xdf3\xbf'
tbag2
(g3
(I0
tS'b'
tRp135
(I1
(I2
tg6
I00
S'\xfb\xfe\xe9<%\xaf0\xbf'
tbag2
(g3
(I0
tS'b'
tRp136
(I1
(I2
tg6
I00
S'O_\x9a<*2.\xbf'
tbag2
(g3
(I0
tS'b'
tRp137
(I1
(I2
tg6
I00
S'E)P=\xbda6\xbf'
tbag2
(g3
(I0
tS'b'
tRp138
(I1
(I2
tg6
I00
S"\x04\xcf&='\xcc3\xbf"
tbag2
(g3
(I0
tS'b'
tRp139
(I1
(I2
tg6
I00
S'\xbb!\x12=R\x812\xbf'
tbag2
(g3
(I0
tS'b'
tRp140
(I1
(I2
tg6
I00
S'\xfbP\x1f=GT3\xbf'
tbag2
(g3
(I0
tS'b'
tRp141
(I1
(I2
tg6
I00
S'\x0f\xf3\xd1<\xb9\xee/\xbf'
tbag2
(g3
(I0
tS'b'
tRp142
(I1
(I2
tg6
I00
S'Y\x10K=7\x106\xbf'
tbag2
(g3
(I0
tS'b'
tRp143
(I1
(I2
tg6
I00
S'\xb4\xd0A=?|5\xbf'
tbag2
(g3
(I0
tS'b'
tRp144
(I1
(I2
tg6
I00
S'n\xc3W=e\xdb6\xbf'
tbag2
(g3
(I0
tS'b'
tRp145
(I1
(I2
tg6
I00
S'\xc5\x12==T05\xbf'
tbag2
(g3
(I0
tS'b'
tRp146
(I1
(I2
tg6
I00
S'\x9b}-=\x0074\xbf'
tbag2
(g3
(I0
tS'b'
tRp147
(I1
(I2
tg6
I00
S'\x14o\x18=\x14\xe62\xbf'
tbag2
(g3
(I0
tS'b'
tRp148
(I1
(I2
tg6
I00
S'\xff? =\x19c3\xbf'
tbag2
(g3
(I0
tS'b'
tRp149
(I1
(I2
tg6
I00
S'\xc5\xfe\xaf<\r\xdf.\xbf'
tbag2
(g3
(I0
tS'b'
tRp150
(I1
(I2
tg6
I00
S'f\xd3H=O\xec5\xbf'
tbag2
(g3
(I0
tS'b'
tRp151
(I1
(I2
tg6
I00
S'xb\x07=-\xd51\xbf'
tbag2
(g3
(I0
tS'b'
tRp152
(I1
(I2
tg6
I00
S'\x1bw\xeb<\xb1\xba0\xbf'
tbag2
(g3
(I0
tS'b'
tRp153
(I1
(I2
tg6
I00
S'\xc2L3=\xca\x934\xbf'
tbag2
(g3
(I0
tS'b'
tRp154
(I1
(I2
tg6
I00
S'\xb1\xd6\x02=n\x8c1\xbf'
tbag2
(g3
(I0
tS'b'
tRp155
(I1
(I2
tg6
I00
S'+\x92"=!\x883\xbf'
tbag2
(g3
(I0
tS'b'
tRp156
(I1
(I2
tg6
I00
S'\xd6\x87J=o\x076\xbf'
tbag2
(g3
(I0
tS'b'
tRp157
(I1
(I2
tg6
I00
S'\xe5\x7fe=\xf3\xb67\xbf'
tbag2
(g3
(I0
tS'b'
tRp158
(I1
(I2
tg6
I00
S'\xbde^=WE7\xbf'
tbag2
(g3
(I0
tS'b'
tRp159
(I1
(I2
tg6
I00
S'\x02\xe7v=j\xcd8\xbf'
tbag2
(g3
(I0
tS'b'
tRp160
(I1
(I2
tg6
I00
S'\x9ce\x82=\xaf\xab9\xbf'
tbag2
(g3
(I0
tS'b'
tRp161
(I1
(I2
tg6
I00
S'\xe7\xe9\x99=7\x9c<\xbf'
tbag2
(g3
(I0
tS'b'
tRp162
(I1
(I2
tg6
I00
S'6~\x93=\xbe\xce;\xbf'
tbag2
(g3
(I0
tS'b'
tRp163
(I1
(I2
tg6
I00
S'\xa8\x97\x92=\xe9\xb1;\xbf'
tbag2
(g3
(I0
tS'b'
tRp164
(I1
(I2
tg6
I00
S'\xd1\x85\x94=\xae\xef;\xbf'
tbag2
(g3
(I0
tS'b'
tRp165
(I1
(I2
tg6
I00
S'a^\x97=\xc6J<\xbf'
tbag2
(g3
(I0
tS'b'
tRp166
(I1
(I2
tg6
I00
S'[\xd5\xa2=\x9d\xb9=\xbf'
tbag2
(g3
(I0
tS'b'
tRp167
(I1
(I2
tg6
I00
S'\\\xb8\xae=\t6?\xbf'
tbag2
(g3
(I0
tS'b'
tRp168
(I1
(I2
tg6
I00
S'\x93>\xb0=\xd1f?\xbf'
tbag2
(g3
(I0
tS'b'
tRp169
(I1
(I2
tg6
I00
S'\x0e5\xaa=\x83\xa5>\xbf'
tbag2
(g3
(I0
tS'b'
tRp170
(I1
(I2
tg6
I00
S'\xb7,\xad=v\x04?\xbf'
tbag2
(g3
(I0
tS'b'
tRp171
(I1
(I2
tg6
I00
S'\xffA\xa5=\x16\x07>\xbf'
tbag2
(g3
(I0
tS'b'
tRp172
(I1
(I2
tg6
I00
S'\xa0\x02\xb8=5_@\xbf'
tbag2
(g3
(I0
tS'b'
tRp173
(I1
(I2
tg6
I00
S'\x88\xbc\xa4=b\xf6=\xbf'
tbag2
(g3
(I0
tS'b'
tRp174
(I1
(I2
tg6
I00
S'\x8b\x19\x86=\xfe!:\xbf'
tbag2
(g3
(I0
tS'b'
tRp175
(I1
(I2
tg6
I00
S'\xaa\xfb\xb5=H\x1e@\xbf'
tbag2
(g3
(I0
tS'b'
tRp176
(I1
(I2
tg6
I00
S'\x02\xbb\xc2=<\xb6A\xbf'
tbag2
(g3
(I0
tS'b'
tRp177
(I1
(I2
tg6
I00
S'9\x84\x9e=]/=\xbf'
tbag2
(g3
(I0
tS'b'
tRp178
(I1
(I2
tg6
I00
S'Uy\x9c=\n\xee<\xbf'
tbag2
(g3
(I0
tS'b'
tRp179
(I1
(I2
tg6
I00
S'1\xc7\xa6=\xc17>\xbf'
tbag2
(g3
(I0
tS'b'
tRp180
(I1
(I2
tg6
I00
S'\x15\xba\x8a=\x18\xb6:\xbf'
tbag2
(g3
(I0
tS'b'
tRp181
(I1
(I2
tg6
I00
S'\xf4U\x93=\x8f\xc9;\xbf'
tbag2
(g3
(I0
tS'b'
tRp182
(I1
(I2
tg6
I00
S'\xd3E\x9c=\x84\xe7<\xbf'
tbag2
(g3
(I0
tS'b'
tRp183
(I1
(I2
tg6
I00
S'\x85#\x99=8\x83<\xbf'
tbag2
(g3
(I0
tS'b'
tRp184
(I1
(I2
tg6
I00
S'\xc6\x82\x85=\x1f\x0f:\xbf'
tbag2
(g3
(I0
tS'b'
tRp185
(I1
(I2
tg6
I00
S'\x00=\x9e=n&=\xbf'
tbag2
(g3
(I0
tS'b'
tRp186
(I1
(I2
tg6
I00
S'N\x8b\xa8=$p>\xbf'
tbag2
(g3
(I0
tS'b'
tRp187
(I1
(I2
tg6
I00
S'\xc9L\xa1=\\\x88=\xbf'
tbag2
(g3
(I0
tS'b'
tRp188
(I1
(I2
tg6
I00
S'\xd9\xcf\xa5=\xc4\x18>\xbf'
tbag2
(g3
(I0
tS'b'
tRp189
(I1
(I2
tg6
I00
S'\x1f\r\xb2=e\xa0?\xbf'
tbag2
(g3
(I0
tS'b'
tRp190
(I1
(I2
tg6
I00
S'f/\xb0=\xabd?\xbf'
tbag2
(g3
(I0
tS'b'
tRp191
(I1
(I2
tg6
I00
S'U\xbc\xaa=I\xb6>\xbf'
tbag2
(g3
(I0
tS'b'
tRp192
(I1
(I2
tg6
I00
S'\xda\xd6\xa7=\x8cY>\xbf'
tbag2
(g3
(I0
tS'b'
tRp193
(I1
(I2
tg6
I00
S'\x7f2\xa4=\x00\xe5=\xbf'
tbag2
(g3
(I0
tS'b'
tRp194
(I1
(I2
tg6
I00
S'\xc6\xc9\xb6=\xeb7@\xbf'
tbag2
(g3
(I0
tS'b'
tRp195
(I1
(I2
tg6
I00
S'\xe2\xd5\xc5=q\x19B\xbf'
tbag2
(g3
(I0
tS'b'
tRp196
(I1
(I2
tg6
I00
S'\xfd\x98\xab=\xe6\xd1>\xbf'
tbag2
(g3
(I0
tS'b'
tRp197
(I1
(I2
tg6
I00
S'e\xbc\xe2=X\xb6E\xbf'
tbag2
(g3
(I0
tS'b'
tRp198
(I1
(I2
tg6
I00
S'\xdf\xe8\xe6=\xdf;F\xbf'
tbag2
(g3
(I0
tS'b'
tRp199
(I1
(I2
tg6
I00
S'dy\xea=\xf0\xadF\xbf'
tbag2
(g3
(I0
tS'b'
tRp200
(I1
(I2
tg6
I00
S'\xe6\xd1\xca=\xfc\xb8B\xbf'
tbag2
(g3
(I0
tS'b'
tRp201
(I1
(I2
tg6
I00
S'my\xea=\xf0\xadF\xbf'
tbag2
(g3
(I0
tS'b'
tRp202
(I1
(I2
tg6
I00
S'9\xbb\x0f>\x93MM\xbf'
tbag2
(g3
(I0
tS'b'
tRp203
(I1
(I2
tg6
I00
S'\xeaS\x03>\xc33J\xbf'
tbag2
(g3
(I0
tS'b'
tRp204
(I1
(I2
tg6
I00
S'\xcb\xf0\x0f>\xfcZM\xbf'
tbag2
(g3
(I0
tS'b'
tRp205
(I1
(I2
tg6
I00
S'(H\x02>\xda\xf0I\xbf'
tbag2
(g3
(I0
tS'b'
tRp206
(I1
(I2
tg6
I00
S'\xb4R\x0e>\x82\xf3L\xbf'
tbag2
(g3
(I0
tS'b'
tRp207
(I1
(I2
tg6
I00
S'>g\x11>\xad\xb8M\xbf'
tbag2
(g3
(I0
tS'b'
tRp208
(I1
(I2
tg6
I00
S'\x9e\x9b\x0e>\xc4\x05M\xbf'
tbag2
(g3
(I0
tS'b'
tRp209
(I1
(I2
tg6
I00
S'\xca(\x06>\x0c\xe9J\xbf'
tbag2
(g3
(I0
tS'b'
tRp210
(I1
(I2
tg6
I00
S'{\xfe\x1d>g\xdeP\xbf'
tbag2
(g3
(I0
tS'b'
tRp211
(I1
(I2
tg6
I00
S'\x8a\x1a!>s\xa5Q\xbf'
tbag2
(g3
(I0
tS'b'
tRp212
(I1
(I2
tg6
I00
S'\xee\x1e)>\x90\xa6S\xbf'
tbag2
(g3
(I0
tS'b'
tRp213
(I1
(I2
tg6
I00
S'\xbdV.>\x8b\xf4T\xbf'
tbag2
(g3
(I0
tS'b'
tRp214
(I1
(I2
tg6
I00
S' \x9f;>\x99FX\xbf'
tbag2
(g3
(I0
tS'b'
tRp215
(I1
(I2
tg6
I00
S'\x95\xc1N>A\x0f]\xbf'
tbag2
(g3
(I0
tS'b'
tRp216
(I1
(I2
tg6
I00
S'\x89\xc5E>2\xd0Z\xbf'
tbag2
(g3
(I0
tS'b'
tRp217
(I1
(I2
tg6
I00
S'\xc3mO><:]\xbf'
tbag2
(g3
(I0
tS'b'
tRp218
(I1
(I2
tg6
I00
S'\x97\xb19>*\xcbW\xbf'
tbag2
(g3
(I0
tS'b'
tRp219
(I1
(I2
tg6
I00
S'\n^C>I6Z\xbf'
tbag2
(g3
(I0
tS'b'
tRp220
(I1
(I2
tg6
I00
S'\xfb\xd9<>I\x95X\xbf'
tbag2
(g3
(I0
tS'b'
tRp221
(I1
(I2
tg6
I00
S'\x1b.B>e\xeaY\xbf'
tbag2
(g3
(I0
tS'b'
tRp222
(I1
(I2
tg6
I00
S'W\xb63>wLV\xbf'
tbag2
(g3
(I0
tS'b'
tRp223
(I1
(I2
tg6
I00
S'\x1f5/>#,U\xbf'
tbag2
(g3
(I0
tS'b'
tRp224
(I1
(I2
tg6
I00
S'\x13\x1eC>d&Z\xbf'
tbag2
(g3
(I0
tS'b'
tRp225
(I1
(I2
tg6
I00
S'=MZ>,\xf2_\xbf'
tbag2
(g3
(I0
tS'b'
tRp226
(I1
(I2
tg6
I00
S'\x19\x87X>\xa2\x80_\xbf'
tbag2
(g3
(I0
tS'b'
tRp227
(I1
(I2
tg6
I00
S'Q\x8bT>\xa7\x81^\xbf'
tbag2
(g3
(I0
tS'b'
tRp228
(I1
(I2
tg6
I00
S'\xeeNE>\x91\xb2Z\xbf'
tbag2
(g3
(I0
tS'b'
tRp229
(I1
(I2
tg6
I00
S'\xc3\x8aV>\x88\x01_\xbf'
tbag2
(g3
(I0
tS'b'
tRp230
(I1
(I2
tg6
I00
S'\x95Z\\>\x84u`\xbf'
tbag2
(g3
(I0
tS'b'
tRp231
(I1
(I2
tg6
I00
S'\x82\x0f[>\xbb"`\xbf'
tbag2
(g3
(I0
tS'b'
tRp232
(I1
(I2
tg6
I00
S'\x03\xcfu>\xa2\xd2f\xbf'
tbag2
(g3
(I0
tS'b'
tRp233
(I1
(I2
tg6
I00
S']BK>r/\\\xbf'
tbag2
(g3
(I0
tS'b'
tRp234
(I1
(I2
tg6
I00
S'-rB>t\xfbY\xbf'
tbag2
(g3
(I0
tS'b'
tRp235
(I1
(I2
tg6
I00
S'\xc8Gd>\xe4pb\xbf'
tbag2
(g3
(I0
tS'b'
tRp236
(I1
(I2
tg6
I00
S'\x19\xf1k>L[d\xbf'
tbag2
(g3
(I0
tS'b'
tRp237
(I1
(I2
tg6
I00
S'2}X>M~_\xbf'
tbag2
(g3
(I0
tS'b'
tRp238
(I1
(I2
tg6
I00
S'\x14fV>\x87\xf8^\xbf'
tbag2
(g3
(I0
tS'b'
tRp239
(I1
(I2
tg6
I00
S'}\xe1f>e\x17c\xbf'
tbag2
(g3
(I0
tS'b'
tRp240
(I1
(I2
tg6
I00
S'\xd0*T>\xc0i^\xbf'
tbag2
(g3
(I0
tS'b'
tRp241
(I1
(I2
tg6
I00
S'\xc0\xc9]>y\xd1`\xbf'
tbag2
(g3
(I0
tS'b'
tRp242
(I1
(I2
tg6
I00
S'\x13\xe7z>\xca\x18h\xbf'
tbag2
(g3
(I0
tS'b'
tRp243
(I1
(I2
tg6
I00
S'\x18L_>\x0b2a\xbf'
tbag2
(g3
(I0
tS'b'
tRp244
(I1
(I2
tg6
I00
S'J\xc9^>_\x11a\xbf'
tbag2
(g3
(I0
tS'b'
tRp245
(I1
(I2
tg6
I00
S'cil>oyd\xbf'
tbag2
(g3
(I0
tS'b'
tRp246
(I1
(I2
tg6
I00
S'\xc0fe>\xc0\xb8b\xbf'
tbag2
(g3
(I0
tS'b'
tRp247
(I1
(I2
tg6
I00
S'\xedg|>\x05yh\xbf'
tbag2
(g3
(I0
tS'b'
tRp248
(I1
(I2
tg6
I00
S'<\xcce>\x17\xd2b\xbf'
tbag2
(g3
(I0
tS'b'
tRp249
(I1
(I2
tg6
I00
S'x\xc2\x85>E@l\xbf'
tbag2
(g3
(I0
tS'b'
tRp250
(I1
(I2
tg6
I00
S'\xf3x\x85>\x8f\x1bl\xbf'
tbag2
(g3
(I0
tS'b'
tRp251
(I1
(I2
tg6
I00
S'S\xd5\x87>\xb2Im\xbf'
tbag2
(g3
(I0
tS'b'
tRp252
(I1
(I2
tg6
I00
S'\xc9<z>5\xeeg\xbf'
tbag2
(g3
(I0
tS'b'
tRp253
(I1
(I2
tg6
I00
S'\xbb\x0es>\xba"f\xbf'
tbag2
(g3
(I0
tS'b'
tRp254
(I1
(I2
tg6
I00
S'P9q>]\xade\xbf'
tbag2
(g3
(I0
tS'b'
tRp255
(I1
(I2
tg6
I00
S'\xf6\xe2x>\xc4\x97g\xbf'
tbag2
(g3
(I0
tS'b'
tRp256
(I1
(I2
tg6
I00
S'\xac\xa0\x88>\\\xafm\xbf'
tbag2
(g3
(I0
tS'b'
tRp257
(I1
(I2
tg6
I00
S'_\x8a\x87>R$m\xbf'
tbag2
(g3
(I0
tS'b'
tRp258
(I1
(I2
tg6
I00
S'v\xd2\x86>`\xc8l\xbf'
tbag2
(g3
(I0
tS'b'
tRp259
(I1
(I2
tg6
I00
S'~m\x94>\xde\x95s\xbf'
tbag2
(g3
(I0
tS'b'
tRp260
(I1
(I2
tg6
I00
S'\x81\xf5\x94>\xed\xd9s\xbf'
tbag2
(g3
(I0
tS'b'
tRp261
(I1
(I2
tg6
I00
S'R\xd7\x8c>\xd3\xcao\xbf'
tbag2
(g3
(I0
tS'b'
tRp262
(I1
(I2
tg6
I00
S'\x97\x94\x98>\x80\xa9u\xbf'
tbag2
(g3
(I0
tS'b'
tRp263
(I1
(I2
tg6
I00
S' \xf0\x8f>JWq\xbf'
tbag2
(g3
(I0
tS'b'
tRp264
(I1
(I2
tg6
I00
S'+(\x8b>M\xf3n\xbf'
tbag2
(g3
(I0
tS'b'
tRp265
(I1
(I2
tg6
I00
S'?B\x8c>R\x80o\xbf'
tbag2
(g3
(I0
tS'b'
tRp266
(I1
(I2
tg6
I00
S'\xbb\x91\x91>\x11(r\xbf'
tbag2
(g3
(I0
tS'b'
tRp267
(I1
(I2
tg6
I00
S'\x19\xfb\x91>\xc5\\r\xbf'
tbag2
(g3
(I0
tS'b'
tRp268
(I1
(I2
tg6
I00
S'\x14\xa7\x92>\xb4\xb2r\xbf'
tba.